target datalayout = "e-m:e-p270:32:32-p271:32:32-p272:64:64-i64:64-i128:128-f80:128-n8:16:32:64-S128"
target triple = "x86_64-pc-linux-gnu"

; Function Attrs: alwaysinline nounwind willreturn memory(none) uwtable
define internal double @av_clipd_c(double noundef %0, double noundef %1, double noundef %2) #5 {
  %4 = alloca double, align 8
  %5 = alloca double, align 8
  %6 = alloca double, align 8
  store double %0, ptr %4, align 8, !tbaa !78
  store double %1, ptr %5, align 8, !tbaa !78
  store double %2, ptr %6, align 8, !tbaa !78
  %7 = load double, ptr %4, align 8, !tbaa !78
  %8 = load double, ptr %5, align 8, !tbaa !78
  %9 = fcmp nsz ogt double %7, %8
  br i1 %9, label %10, label %12

10:                                               ; preds = %3
  %11 = load double, ptr %4, align 8, !tbaa !78
  br label %14

12:                                               ; preds = %3
  %13 = load double, ptr %5, align 8, !tbaa !78
  br label %14

14:                                               ; preds = %12, %10
  %15 = phi nsz double [ %11, %10 ], [ %13, %12 ]
  %16 = load double, ptr %6, align 8, !tbaa !78
  %17 = fcmp nsz ogt double %15, %16
  br i1 %17, label %18, label %20

18:                                               ; preds = %14
  %19 = load double, ptr %6, align 8, !tbaa !78
  br label %30

20:                                               ; preds = %14
  %21 = load double, ptr %4, align 8, !tbaa !78
  %22 = load double, ptr %5, align 8, !tbaa !78
  %23 = fcmp nsz ogt double %21, %22
  br i1 %23, label %24, label %26

24:                                               ; preds = %20
  %25 = load double, ptr %4, align 8, !tbaa !78
  br label %28

26:                                               ; preds = %20
  %27 = load double, ptr %5, align 8, !tbaa !78
  br label %28

28:                                               ; preds = %26, %24
  %29 = phi nsz double [ %25, %24 ], [ %27, %26 ]
  br label %30

30:                                               ; preds = %28, %18
  %31 = phi nsz double [ %19, %18 ], [ %29, %28 ]
  ret double %31
}

; Function Attrs: nounwind uwtable
define internal double @fade_gain(i32 noundef %0, i64 noundef %1, i64 noundef %2, double noundef %3, double noundef %4) #1 {
  %6 = alloca i32, align 4
  %7 = alloca i64, align 8
  %8 = alloca i64, align 8
  %9 = alloca double, align 8
  %10 = alloca double, align 8
  %11 = alloca double, align 8
  %12 = alloca double, align 8
  %13 = alloca double, align 8
  %14 = alloca double, align 8
  %15 = alloca double, align 8
  store i32 %0, ptr %6, align 4, !tbaa !30
  store i64 %1, ptr %7, align 8, !tbaa !58
  store i64 %2, ptr %8, align 8, !tbaa !58
  store double %3, ptr %9, align 8, !tbaa !78
  store double %4, ptr %10, align 8, !tbaa !78
  call void @llvm.lifetime.start.p0(i64 8, ptr %11) #10
  %16 = load i64, ptr %7, align 8, !tbaa !58
  %17 = sitofp i64 %16 to double
  %18 = fmul nsz double 1.000000e+00, %17
  %19 = load i64, ptr %8, align 8, !tbaa !58
  %20 = sitofp i64 %19 to double
  %21 = fdiv nsz double %18, %20
  %22 = call nsz double @av_clipd_c(double noundef %21, double noundef 0.000000e+00, double noundef 1.000000e+00) #11
  store double %22, ptr %11, align 8, !tbaa !78
  %23 = load i32, ptr %6, align 4, !tbaa !30
  switch i32 %23, label %220 [
    i32 1, label %24
    i32 12, label %29
    i32 2, label %33
    i32 3, label %45
    i32 13, label %51
    i32 11, label %56
    i32 4, label %61
    i32 10, label %66
    i32 5, label %71
    i32 6, label %78
    i32 7, label %82
    i32 8, label %88
    i32 9, label %91
    i32 14, label %94
    i32 15, label %111
    i32 16, label %140
    i32 17, label %162
    i32 18, label %177
    i32 19, label %191
    i32 20, label %199
    i32 21, label %202
    i32 22, label %212
    i32 -1, label %219
  ]

24:                                               ; preds = %5
  %25 = load double, ptr %11, align 8, !tbaa !78
  %26 = fmul nsz double %25, 0x400921FB54442D18
  %27 = fdiv nsz double %26, 2.000000e+00
  %28 = call nsz double @llvm.sin.f64(double %27)
  store double %28, ptr %11, align 8, !tbaa !78
  br label %220

29:                                               ; preds = %5
  %30 = load double, ptr %11, align 8, !tbaa !78
  %31 = call nsz double @llvm.asin.f64(double %30)
  %32 = fmul nsz double 0x3FE45F306DC9C883, %31
  store double %32, ptr %11, align 8, !tbaa !78
  br label %220

33:                                               ; preds = %5
  %34 = load double, ptr %11, align 8, !tbaa !78
  %35 = call nsz double @llvm.fmuladd.f64(double 2.000000e+00, double %34, double -1.000000e+00)
  %36 = load double, ptr %11, align 8, !tbaa !78
  %37 = call nsz double @llvm.fmuladd.f64(double 2.000000e+00, double %36, double -1.000000e+00)
  %38 = fmul nsz double %35, %37
  %39 = load double, ptr %11, align 8, !tbaa !78
  %40 = call nsz double @llvm.fmuladd.f64(double 2.000000e+00, double %39, double -1.000000e+00)
  %41 = call nsz double @llvm.fmuladd.f64(double %38, double %40, double 1.000000e+00)
  %42 = fmul nsz double 0x3FE921FB54442D18, %41
  %43 = call nsz double @llvm.cos.f64(double %42)
  %44 = fsub nsz double 1.000000e+00, %43
  store double %44, ptr %11, align 8, !tbaa !78
  br label %220

45:                                               ; preds = %5
  %46 = load double, ptr %11, align 8, !tbaa !78
  %47 = fmul nsz double %46, 0x400921FB54442D18
  %48 = call nsz double @llvm.cos.f64(double %47)
  %49 = fsub nsz double 1.000000e+00, %48
  %50 = fdiv nsz double %49, 2.000000e+00
  store double %50, ptr %11, align 8, !tbaa !78
  br label %220

51:                                               ; preds = %5
  %52 = load double, ptr %11, align 8, !tbaa !78
  %53 = call nsz double @llvm.fmuladd.f64(double -2.000000e+00, double %52, double 1.000000e+00)
  %54 = call nsz double @llvm.acos.f64(double %53)
  %55 = fmul nsz double 0x3FD45F306DC9C883, %54
  store double %55, ptr %11, align 8, !tbaa !78
  br label %220

56:                                               ; preds = %5
  %57 = load double, ptr %11, align 8, !tbaa !78
  %58 = fsub nsz double 1.000000e+00, %57
  %59 = fmul nsz double 0xC027069E2AA2AA5A, %58
  %60 = call nsz double @llvm.exp.f64(double %59)
  store double %60, ptr %11, align 8, !tbaa !78
  br label %220

61:                                               ; preds = %5
  %62 = load double, ptr %11, align 8, !tbaa !78
  %63 = call nsz double @llvm.log10.f64(double %62)
  %64 = call nsz double @llvm.fmuladd.f64(double 2.000000e-01, double %63, double 1.000000e+00)
  %65 = call nsz double @av_clipd_c(double noundef %64, double noundef 0.000000e+00, double noundef 1.000000e+00) #11
  store double %65, ptr %11, align 8, !tbaa !78
  br label %220

66:                                               ; preds = %5
  %67 = load double, ptr %11, align 8, !tbaa !78
  %68 = fsub nsz double 1.000000e+00, %67
  %69 = call nsz double @llvm.sqrt.f64(double %68)
  %70 = fsub nsz double 1.000000e+00, %69
  store double %70, ptr %11, align 8, !tbaa !78
  br label %220

71:                                               ; preds = %5
  %72 = load double, ptr %11, align 8, !tbaa !78
  %73 = fsub nsz double 1.000000e+00, %72
  %74 = load double, ptr %11, align 8, !tbaa !78
  %75 = fsub nsz double 1.000000e+00, %74
  %76 = fneg nsz double %73
  %77 = call nsz double @llvm.fmuladd.f64(double %76, double %75, double 1.000000e+00)
  store double %77, ptr %11, align 8, !tbaa !78
  br label %220

78:                                               ; preds = %5
  %79 = load double, ptr %11, align 8, !tbaa !78
  %80 = load double, ptr %11, align 8, !tbaa !78
  %81 = fmul nsz double %80, %79
  store double %81, ptr %11, align 8, !tbaa !78
  br label %220

82:                                               ; preds = %5
  %83 = load double, ptr %11, align 8, !tbaa !78
  %84 = load double, ptr %11, align 8, !tbaa !78
  %85 = fmul nsz double %83, %84
  %86 = load double, ptr %11, align 8, !tbaa !78
  %87 = fmul nsz double %85, %86
  store double %87, ptr %11, align 8, !tbaa !78
  br label %220

88:                                               ; preds = %5
  %89 = load double, ptr %11, align 8, !tbaa !78
  %90 = call nsz double @llvm.sqrt.f64(double %89)
  store double %90, ptr %11, align 8, !tbaa !78
  br label %220

91:                                               ; preds = %5
  %92 = load double, ptr %11, align 8, !tbaa !78
  %93 = call nsz double @cbrt(double noundef %92) #11
  store double %93, ptr %11, align 8, !tbaa !78
  br label %220

94:                                               ; preds = %5
  %95 = load double, ptr %11, align 8, !tbaa !78
  %96 = fcmp nsz ole double %95, 5.000000e-01
  br i1 %96, label %97, label %102

97:                                               ; preds = %94
  %98 = load double, ptr %11, align 8, !tbaa !78
  %99 = fmul nsz double 2.000000e+00, %98
  %100 = call nsz double @cbrt(double noundef %99) #11
  %101 = fdiv nsz double %100, 2.000000e+00
  br label %109

102:                                              ; preds = %94
  %103 = load double, ptr %11, align 8, !tbaa !78
  %104 = fsub nsz double 1.000000e+00, %103
  %105 = fmul nsz double 2.000000e+00, %104
  %106 = call nsz double @cbrt(double noundef %105) #11
  %107 = fdiv nsz double %106, 2.000000e+00
  %108 = fsub nsz double 1.000000e+00, %107
  br label %109

109:                                              ; preds = %102, %97
  %110 = phi nsz double [ %101, %97 ], [ %108, %102 ]
  store double %110, ptr %11, align 8, !tbaa !78
  br label %220

111:                                              ; preds = %5
  %112 = load double, ptr %11, align 8, !tbaa !78
  %113 = fcmp nsz ole double %112, 5.000000e-01
  br i1 %113, label %114, label %124

114:                                              ; preds = %111
  %115 = load double, ptr %11, align 8, !tbaa !78
  %116 = fmul nsz double 2.000000e+00, %115
  %117 = load double, ptr %11, align 8, !tbaa !78
  %118 = fmul nsz double 2.000000e+00, %117
  %119 = fmul nsz double %116, %118
  %120 = load double, ptr %11, align 8, !tbaa !78
  %121 = fmul nsz double 2.000000e+00, %120
  %122 = fmul nsz double %119, %121
  %123 = fdiv nsz double %122, 2.000000e+00
  br label %138

124:                                              ; preds = %111
  %125 = load double, ptr %11, align 8, !tbaa !78
  %126 = fsub nsz double 1.000000e+00, %125
  %127 = fmul nsz double 2.000000e+00, %126
  %128 = load double, ptr %11, align 8, !tbaa !78
  %129 = fsub nsz double 1.000000e+00, %128
  %130 = fmul nsz double 2.000000e+00, %129
  %131 = fmul nsz double %127, %130
  %132 = load double, ptr %11, align 8, !tbaa !78
  %133 = fsub nsz double 1.000000e+00, %132
  %134 = fmul nsz double 2.000000e+00, %133
  %135 = fmul nsz double %131, %134
  %136 = fdiv nsz double %135, 2.000000e+00
  %137 = fsub nsz double 1.000000e+00, %136
  br label %138

138:                                              ; preds = %124, %114
  %139 = phi nsz double [ %123, %114 ], [ %137, %124 ]
  store double %139, ptr %11, align 8, !tbaa !78
  br label %220

140:                                              ; preds = %5
  call void @llvm.lifetime.start.p0(i64 8, ptr %12) #10
  store double 0x400D8F0602675C8E, ptr %12, align 8, !tbaa !78
  call void @llvm.lifetime.start.p0(i64 8, ptr %13) #10
  %141 = load double, ptr %11, align 8, !tbaa !78
  %142 = fsub nsz double %141, 5.000000e-01
  %143 = fmul nsz double %142, 0x400D8F0602675C8E
  %144 = fneg nsz double %143
  %145 = call nsz double @llvm.fmuladd.f64(double %144, double 2.000000e+00, double 0.000000e+00)
  %146 = call nsz double @llvm.exp.f64(double %145)
  %147 = fadd nsz double 1.000000e+00, %146
  %148 = fdiv nsz double 1.000000e+00, %147
  store double %148, ptr %13, align 8, !tbaa !78
  call void @llvm.lifetime.start.p0(i64 8, ptr %14) #10
  %149 = call nsz double @llvm.exp.f64(double 0x400D8F0602675C8E)
  %150 = fadd nsz double 1.000000e+00, %149
  %151 = fdiv nsz double 1.000000e+00, %150
  store double %151, ptr %14, align 8, !tbaa !78
  call void @llvm.lifetime.start.p0(i64 8, ptr %15) #10
  %152 = call nsz double @llvm.exp.f64(double 0xC00D8F0602675C8E)
  %153 = fadd nsz double 1.000000e+00, %152
  %154 = fdiv nsz double 1.000000e+00, %153
  store double %154, ptr %15, align 8, !tbaa !78
  %155 = load double, ptr %13, align 8, !tbaa !78
  %156 = load double, ptr %14, align 8, !tbaa !78
  %157 = fsub nsz double %155, %156
  %158 = load double, ptr %15, align 8, !tbaa !78
  %159 = load double, ptr %14, align 8, !tbaa !78
  %160 = fsub nsz double %158, %159
  %161 = fdiv nsz double %157, %160
  store double %161, ptr %11, align 8, !tbaa !78
  call void @llvm.lifetime.end.p0(i64 8, ptr %15) #10
  call void @llvm.lifetime.end.p0(i64 8, ptr %14) #10
  call void @llvm.lifetime.end.p0(i64 8, ptr %13) #10
  call void @llvm.lifetime.end.p0(i64 8, ptr %12) #10
  br label %220

162:                                              ; preds = %5
  %163 = load double, ptr %11, align 8, !tbaa !78
  %164 = fcmp nsz oge double %163, 1.000000e+00
  br i1 %164, label %165, label %166

165:                                              ; preds = %162
  br label %175

166:                                              ; preds = %162
  %167 = load double, ptr %11, align 8, !tbaa !78
  %168 = fsub nsz double 1.000000e+00, %167
  %169 = fmul nsz double 0x400921FB54442D18, %168
  %170 = call nsz double @llvm.sin.f64(double %169)
  %171 = load double, ptr %11, align 8, !tbaa !78
  %172 = fsub nsz double 1.000000e+00, %171
  %173 = fmul nsz double 0x400921FB54442D18, %172
  %174 = fdiv nsz double %170, %173
  br label %175

175:                                              ; preds = %166, %165
  %176 = phi nsz double [ 1.000000e+00, %165 ], [ %174, %166 ]
  store double %176, ptr %11, align 8, !tbaa !78
  br label %220

177:                                              ; preds = %5
  %178 = load double, ptr %11, align 8, !tbaa !78
  %179 = fcmp nsz ole double %178, 0.000000e+00
  br i1 %179, label %180, label %181

180:                                              ; preds = %177
  br label %189

181:                                              ; preds = %177
  %182 = load double, ptr %11, align 8, !tbaa !78
  %183 = fmul nsz double 0x400921FB54442D18, %182
  %184 = call nsz double @llvm.sin.f64(double %183)
  %185 = load double, ptr %11, align 8, !tbaa !78
  %186 = fmul nsz double 0x400921FB54442D18, %185
  %187 = fdiv nsz double %184, %186
  %188 = fsub nsz double 1.000000e+00, %187
  br label %189

189:                                              ; preds = %181, %180
  %190 = phi nsz double [ 0.000000e+00, %180 ], [ %188, %181 ]
  store double %190, ptr %11, align 8, !tbaa !78
  br label %220

191:                                              ; preds = %5
  %192 = load double, ptr %11, align 8, !tbaa !78
  %193 = load double, ptr %11, align 8, !tbaa !78
  %194 = fmul nsz double %192, %193
  %195 = load double, ptr %11, align 8, !tbaa !78
  %196 = fmul nsz double %194, %195
  %197 = load double, ptr %11, align 8, !tbaa !78
  %198 = fmul nsz double %196, %197
  store double %198, ptr %11, align 8, !tbaa !78
  br label %220

199:                                              ; preds = %5
  %200 = load double, ptr %11, align 8, !tbaa !78
  %201 = call nsz double @llvm.pow.f64(double %200, double 2.500000e-01)
  store double %201, ptr %11, align 8, !tbaa !78
  br label %220

202:                                              ; preds = %5
  %203 = load double, ptr %11, align 8, !tbaa !78
  %204 = fmul nsz double %203, 0x400921FB54442D18
  %205 = fdiv nsz double %204, 2.000000e+00
  %206 = call nsz double @llvm.sin.f64(double %205)
  %207 = load double, ptr %11, align 8, !tbaa !78
  %208 = fmul nsz double %207, 0x400921FB54442D18
  %209 = fdiv nsz double %208, 2.000000e+00
  %210 = call nsz double @llvm.sin.f64(double %209)
  %211 = fmul nsz double %206, %210
  store double %211, ptr %11, align 8, !tbaa !78
  br label %220

212:                                              ; preds = %5
  %213 = load double, ptr %11, align 8, !tbaa !78
  %214 = fmul nsz double %213, 0x400921FB54442D18
  %215 = call nsz double @llvm.cos.f64(double %214)
  %216 = fsub nsz double 1.000000e+00, %215
  %217 = fdiv nsz double %216, 2.000000e+00
  %218 = call nsz double @llvm.pow.f64(double %217, double 2.000000e+00)
  store double %218, ptr %11, align 8, !tbaa !78
  br label %220

219:                                              ; preds = %5
  store double 1.000000e+00, ptr %11, align 8, !tbaa !78
  br label %220

220:                                              ; preds = %5, %219, %212, %202, %199, %191, %189, %175, %140, %138, %109, %91, %88, %82, %78, %71, %66, %61, %56, %51, %45, %33, %29, %24
  %221 = load double, ptr %9, align 8, !tbaa !78
  %222 = load double, ptr %10, align 8, !tbaa !78
  %223 = load double, ptr %9, align 8, !tbaa !78
  %224 = fsub nsz double %222, %223
  %225 = load double, ptr %11, align 8, !tbaa !78
  %226 = call nsz double @llvm.fmuladd.f64(double %224, double %225, double %221)
  call void @llvm.lifetime.end.p0(i64 8, ptr %11) #10
  ret double %226
}