; Function Attrs: mustprogress nofree norecurse nosync nounwind willreturn memory(none) uwtable
define internal fastcc double @fade_gain(i32 noundef %0, i64 noundef %1, i64 noundef %2, double noundef %3, double noundef %4) unnamed_addr #7 {
  %6 = sitofp i64 %1 to double
  %7 = sitofp i64 %2 to double
  %8 = fdiv nsz double %6, %7
  %9 = fcmp nsz ogt double %8, 0.000000e+00
  %10 = select nsz i1 %9, double %8, double 0.000000e+00
  %11 = fcmp nsz ogt double %10, 1.000000e+00
  %..i = select nsz i1 %11, double 1.000000e+00, double %10
  switch i32 %0, label %128 [
    i32 1, label %12
    i32 12, label %16
    i32 2, label %19
    i32 3, label %26
    i32 13, label %31
    i32 11, label %35
    i32 4, label %39
    i32 10, label %45
    i32 5, label %49
    i32 6, label %53
    i32 7, label %55
    i32 8, label %58
    i32 9, label %60
    i32 14, label %62
    i32 15, label %74
    i32 16, label %88
    i32 17, label %97
    i32 18, label %104
    i32 19, label %111
    i32 20, label %115
    i32 21, label %117
    i32 22, label %122
    i32 -1, label %127
  ]

12:                                               ; preds = %5
  %13 = fmul nsz double %..i, 0x400921FB54442D18
  %14 = fmul nsz double %13, 5.000000e-01
  %15 = tail call nsz double @llvm.sin.f64(double %14)
  br label %128

16:                                               ; preds = %5
  %17 = tail call nsz double @llvm.asin.f64(double %..i)
  %18 = fmul nsz double %17, 0x3FE45F306DC9C883
  br label %128

19:                                               ; preds = %5
  %20 = tail call nsz double @llvm.fmuladd.f64(double %..i, double 2.000000e+00, double -1.000000e+00)
  %21 = fmul nsz double %20, %20
  %22 = tail call nsz double @llvm.fmuladd.f64(double %21, double %20, double 1.000000e+00)
  %23 = fmul nsz double %22, 0x3FE921FB54442D18
  %24 = tail call nsz double @llvm.cos.f64(double %23)
  %25 = fsub nsz double 1.000000e+00, %24
  br label %128

26:                                               ; preds = %5
  %27 = fmul nsz double %..i, 0x400921FB54442D18
  %28 = tail call nsz double @llvm.cos.f64(double %27)
  %29 = fsub nsz double 1.000000e+00, %28
  %30 = fmul nsz double %29, 5.000000e-01
  br label %128

31:                                               ; preds = %5
  %32 = tail call nsz double @llvm.fmuladd.f64(double %..i, double -2.000000e+00, double 1.000000e+00)
  %33 = tail call nsz double @llvm.acos.f64(double %32)
  %34 = fmul nsz double %33, 0x3FD45F306DC9C883
  br label %128

35:                                               ; preds = %5
  %36 = fsub nsz double 1.000000e+00, %..i
  %37 = fmul nsz double %36, 0xC027069E2AA2AA5A
  %38 = tail call nsz double @llvm.exp.f64(double %37)
  br label %128

39:                                               ; preds = %5
  %40 = tail call nsz double @llvm.log10.f64(double %..i)
  %41 = tail call nsz double @llvm.fmuladd.f64(double %40, double 2.000000e-01, double 1.000000e+00)
  %42 = fcmp nsz ogt double %41, 0.000000e+00
  %43 = select nsz i1 %42, double %41, double 0.000000e+00
  %44 = fcmp nsz ogt double %43, 1.000000e+00
  %..i55 = select nsz i1 %44, double 1.000000e+00, double %43
  br label %128

45:                                               ; preds = %5
  %46 = fsub nsz double 1.000000e+00, %..i
  %47 = tail call nsz double @llvm.sqrt.f64(double %46)
  %48 = fsub nsz double 1.000000e+00, %47
  br label %128

49:                                               ; preds = %5
  %50 = fsub nsz double 1.000000e+00, %..i
  %51 = fneg nsz double %50
  %52 = tail call nsz double @llvm.fmuladd.f64(double %51, double %50, double 1.000000e+00)
  br label %128

53:                                               ; preds = %5
  %54 = fmul nsz double %..i, %..i
  br label %128

55:                                               ; preds = %5
  %56 = fmul nsz double %..i, %..i
  %57 = fmul nsz double %..i, %56
  br label %128

58:                                               ; preds = %5
  %59 = tail call nsz double @llvm.sqrt.f64(double %..i)
  br label %128

60:                                               ; preds = %5
  %61 = tail call nsz double @cbrt(double noundef %..i) #12
  br label %128

62:                                               ; preds = %5
  %63 = fcmp nsz ugt double %..i, 5.000000e-01
  br i1 %63, label %68, label %64

64:                                               ; preds = %62
  %65 = fmul nsz double %..i, 2.000000e+00
  %66 = tail call nsz double @cbrt(double noundef %65) #12
  %67 = fmul nsz double %66, 5.000000e-01
  br label %128

68:                                               ; preds = %62
  %69 = fsub nsz double 1.000000e+00, %..i
  %70 = fmul nsz double %69, 2.000000e+00
  %71 = tail call nsz double @cbrt(double noundef %70) #12
  %72 = fmul nsz double %71, 5.000000e-01
  %73 = fsub nsz double 1.000000e+00, %72
  br label %128

74:                                               ; preds = %5
  %75 = fcmp nsz ugt double %..i, 5.000000e-01
  br i1 %75, label %81, label %76

76:                                               ; preds = %74
  %77 = fmul nsz double %..i, 2.000000e+00
  %78 = fmul nsz double %77, %77
  %79 = fmul nsz double %77, %78
  %80 = fmul nsz double %79, 5.000000e-01
  br label %128

81:                                               ; preds = %74
  %82 = fsub nsz double 1.000000e+00, %..i
  %83 = fmul nsz double %82, 2.000000e+00
  %84 = fmul nsz double %83, %83
  %85 = fmul nsz double %83, %84
  %86 = fmul nsz double %85, 5.000000e-01
  %87 = fsub nsz double 1.000000e+00, %86
  br label %128

88:                                               ; preds = %5
  %89 = fadd nsz double %..i, -5.000000e-01
  %90 = fmul nsz double %89, 0xC00D8F0602675C8E
  %91 = fmul nsz double %90, 2.000000e+00
  %92 = tail call nsz double @llvm.exp.f64(double %91)
  %93 = fadd nsz double %92, 1.000000e+00
  %94 = fdiv nsz double 1.000000e+00, %93
  %95 = fadd nsz double %94, 0xBF98D4B514942172
  %96 = fdiv nsz double %95, 0x3FEE72B4AEB6BDE8
  br label %128

97:                                               ; preds = %5
  %98 = fcmp nsz ult double %..i, 1.000000e+00
  br i1 %98, label %99, label %128

99:                                               ; preds = %97
  %100 = fsub nsz double 1.000000e+00, %..i
  %101 = fmul nsz double %100, 0x400921FB54442D18
  %102 = tail call nsz double @llvm.sin.f64(double %101)
  %103 = fdiv nsz double %102, %101
  br label %128

104:                                              ; preds = %5
  %105 = fcmp nsz ugt double %..i, 0.000000e+00
  br i1 %105, label %106, label %128

106:                                              ; preds = %104
  %107 = fmul nsz double %..i, 0x400921FB54442D18
  %108 = tail call nsz double @llvm.sin.f64(double %107)
  %109 = fdiv nsz double %108, %107
  %110 = fsub nsz double 1.000000e+00, %109
  br label %128

111:                                              ; preds = %5
  %112 = fmul nsz double %..i, %..i
  %113 = fmul nsz double %..i, %112
  %114 = fmul nsz double %..i, %113
  br label %128

115:                                              ; preds = %5
  %116 = tail call nsz double @llvm.pow.f64(double %..i, double 2.500000e-01)
  br label %128

117:                                              ; preds = %5
  %118 = fmul nsz double %..i, 0x400921FB54442D18
  %119 = fmul nsz double %118, 5.000000e-01
  %120 = tail call nsz double @llvm.sin.f64(double %119)
  %121 = fmul nsz double %120, %120
  br label %128

122:                                              ; preds = %5
  %123 = fmul nsz double %..i, 0x400921FB54442D18
  %124 = tail call nsz double @llvm.cos.f64(double %123)
  %125 = fsub nsz double 1.000000e+00, %124
  %126 = fmul nsz double %125, 5.000000e-01
  %square = fmul nsz double %126, %126
  br label %128

127:                                              ; preds = %5
  br label %128

128:                                              ; preds = %106, %104, %99, %97, %76, %81, %64, %68, %127, %122, %117, %115, %111, %88, %60, %58, %55, %53, %49, %45, %39, %35, %31, %26, %19, %16, %12, %5
  %.0 = phi nsz double [ %..i, %5 ], [ 1.000000e+00, %127 ], [ %square, %122 ], [ %121, %117 ], [ %116, %115 ], [ %114, %111 ], [ %96, %88 ], [ %61, %60 ], [ %59, %58 ], [ %57, %55 ], [ %54, %53 ], [ %52, %49 ], [ %48, %45 ], [ %..i55, %39 ], [ %38, %35 ], [ %34, %31 ], [ %30, %26 ], [ %25, %19 ], [ %18, %16 ], [ %15, %12 ], [ %67, %64 ], [ %73, %68 ], [ %80, %76 ], [ %87, %81 ], [ %103, %99 ], [ 1.000000e+00, %97 ], [ %110, %106 ], [ 0.000000e+00, %104 ]
  %129 = fsub nsz double %4, %3
  %130 = tail call nsz double @llvm.fmuladd.f64(double %129, double %.0, double %3)
  ret double %130
}